target datalayout = "e-m:e-p270:32:32-p271:32:32-p272:64:64-i64:64-i128:128-f80:128-n8:16:32:64-S128"
target triple = "x86_64-pc-linux-gnu"

@hf_num_cos = internal global i32 0, align 4
@ett_min_pk_tx_delay = internal global i32 0, align 4
@ett_avg_pk_tx_delay = internal global i32 0, align 4
@ett_max_pk_tx_delay = internal global i32 0, align 4
@ett_pk_delay_jitter = internal global i32 0, align 4
@ett_pk_loss_rate = internal global i32 0, align 4
@.str.633 = private unnamed_addr constant [16 x i8] c"MIN_PK_TX_DELAY\00", align 1
@.str.634 = private unnamed_addr constant [16 x i8] c"AVG_PK_TX_DELAY\00", align 1
@.str.635 = private unnamed_addr constant [16 x i8] c"MAX_PK_TX_DELAY\00", align 1
@.str.636 = private unnamed_addr constant [16 x i8] c"PK_DELAY_JITTER\00", align 1
@.str.637 = private unnamed_addr constant [13 x i8] c"PK_LOSS_RATE\00", align 1

; Function Attrs: null_pointer_is_valid sspstrong uwtable
define internal signext i16 @dissect_mih_list(ptr noundef %0, i16 noundef signext %1, ptr noundef %2, ptr noundef %3) #0 {
  %5 = alloca ptr, align 8
  %6 = alloca i16, align 2
  %7 = alloca ptr, align 8
  %8 = alloca ptr, align 8
  %9 = alloca i8, align 1
  %10 = alloca i8, align 1
  store ptr %0, ptr %5, align 8
  store i16 %1, ptr %6, align 2
  store ptr %2, ptr %7, align 8
  store ptr %3, ptr %8, align 8
  call void @llvm.lifetime.start.p0(i64 1, ptr %9) #5
  store i8 0, ptr %9, align 1
  call void @llvm.lifetime.start.p0(i64 1, ptr %10) #5
  %11 = load ptr, ptr %5, align 8
  %12 = load i16, ptr %6, align 2
  %13 = sext i16 %12 to i32
  %14 = call zeroext i8 @tvb_get_uint8(ptr noundef %11, i32 noundef %13)
  store i8 %14, ptr %10, align 1
  %15 = load i16, ptr %6, align 2
  %16 = add i16 %15, 1
  store i16 %16, ptr %6, align 2
  store i8 0, ptr %9, align 1
  br label %17

17:                                               ; preds = %29, %4
  %18 = load i8, ptr %9, align 1
  %19 = zext i8 %18 to i32
  %20 = load i8, ptr %10, align 1
  %21 = zext i8 %20 to i32
  %22 = icmp slt i32 %19, %21
  br i1 %22, label %23, label %32

23:                                               ; preds = %17
  %24 = load ptr, ptr %8, align 8
  %25 = load ptr, ptr %5, align 8
  %26 = load i16, ptr %6, align 2
  %27 = load ptr, ptr %7, align 8
  %28 = call signext i16 %24(ptr noundef %25, i16 noundef signext %26, ptr noundef %27)
  store i16 %28, ptr %6, align 2
  br label %29

29:                                               ; preds = %23
  %30 = load i8, ptr %9, align 1
  %31 = add i8 %30, 1
  store i8 %31, ptr %9, align 1
  br label %17, !llvm.loop !13

32:                                               ; preds = %17
  %33 = load i16, ptr %6, align 2
  call void @llvm.lifetime.end.p0(i64 1, ptr %10) #5
  call void @llvm.lifetime.end.p0(i64 1, ptr %9) #5
  ret i16 %33
}

; Function Attrs: null_pointer_is_valid sspstrong uwtable
define internal signext i16 @dissect_qos_list(ptr noundef %0, i16 noundef signext %1, ptr noundef %2) #0 {
  %4 = alloca ptr, align 8
  %5 = alloca i16, align 2
  %6 = alloca ptr, align 8
  %7 = alloca ptr, align 8
  store ptr %0, ptr %4, align 8
  store i16 %1, ptr %5, align 2
  store ptr %2, ptr %6, align 8
  call void @llvm.lifetime.start.p0(i64 8, ptr %7) #5
  %8 = load ptr, ptr %6, align 8
  %9 = load i32, ptr @hf_num_cos, align 4
  %10 = load ptr, ptr %4, align 8
  %11 = load i16, ptr %5, align 2
  %12 = sext i16 %11 to i32
  %13 = call ptr @proto_tree_add_item(ptr noundef %8, i32 noundef %9, ptr noundef %10, i32 noundef %12, i32 noundef 1, i32 noundef 0)
  %14 = load i16, ptr %5, align 2
  %15 = sext i16 %14 to i32
  %16 = add i32 %15, 1
  %17 = trunc i32 %16 to i16
  store i16 %17, ptr %5, align 2
  %18 = load ptr, ptr %6, align 8
  %19 = load ptr, ptr %4, align 8
  %20 = load i16, ptr %5, align 2
  %21 = sext i16 %20 to i32
  %22 = load i32, ptr @ett_min_pk_tx_delay, align 4
  %23 = call ptr @proto_tree_add_subtree(ptr noundef %18, ptr noundef %19, i32 noundef %21, i32 noundef 1, i32 noundef %22, ptr noundef null, ptr noundef @.str.633)
  store ptr %23, ptr %7, align 8
  %24 = load ptr, ptr %4, align 8
  %25 = load i16, ptr %5, align 2
  %26 = load ptr, ptr %7, align 8
  %27 = call signext i16 @dissect_mih_list(ptr noundef %24, i16 noundef signext %25, ptr noundef %26, ptr noundef @dissect_qos_val)
  store i16 %27, ptr %5, align 2
  %28 = load ptr, ptr %6, align 8
  %29 = load ptr, ptr %4, align 8
  %30 = load i16, ptr %5, align 2
  %31 = sext i16 %30 to i32
  %32 = load i32, ptr @ett_avg_pk_tx_delay, align 4
  %33 = call ptr @proto_tree_add_subtree(ptr noundef %28, ptr noundef %29, i32 noundef %31, i32 noundef 1, i32 noundef %32, ptr noundef null, ptr noundef @.str.634)
  store ptr %33, ptr %7, align 8
  %34 = load ptr, ptr %4, align 8
  %35 = load i16, ptr %5, align 2
  %36 = load ptr, ptr %7, align 8
  %37 = call signext i16 @dissect_mih_list(ptr noundef %34, i16 noundef signext %35, ptr noundef %36, ptr noundef @dissect_qos_val)
  store i16 %37, ptr %5, align 2
  %38 = load ptr, ptr %6, align 8
  %39 = load ptr, ptr %4, align 8
  %40 = load i16, ptr %5, align 2
  %41 = sext i16 %40 to i32
  %42 = load i32, ptr @ett_max_pk_tx_delay, align 4
  %43 = call ptr @proto_tree_add_subtree(ptr noundef %38, ptr noundef %39, i32 noundef %41, i32 noundef 1, i32 noundef %42, ptr noundef null, ptr noundef @.str.635)
  store ptr %43, ptr %7, align 8
  %44 = load ptr, ptr %4, align 8
  %45 = load i16, ptr %5, align 2
  %46 = load ptr, ptr %7, align 8
  %47 = call signext i16 @dissect_mih_list(ptr noundef %44, i16 noundef signext %45, ptr noundef %46, ptr noundef @dissect_qos_val)
  store i16 %47, ptr %5, align 2
  %48 = load ptr, ptr %6, align 8
  %49 = load ptr, ptr %4, align 8
  %50 = load i16, ptr %5, align 2
  %51 = sext i16 %50 to i32
  %52 = load i32, ptr @ett_pk_delay_jitter, align 4
  %53 = call ptr @proto_tree_add_subtree(ptr noundef %48, ptr noundef %49, i32 noundef %51, i32 noundef 1, i32 noundef %52, ptr noundef null, ptr noundef @.str.636)
  store ptr %53, ptr %7, align 8
  %54 = load ptr, ptr %4, align 8
  %55 = load i16, ptr %5, align 2
  %56 = load ptr, ptr %7, align 8
  %57 = call signext i16 @dissect_mih_list(ptr noundef %54, i16 noundef signext %55, ptr noundef %56, ptr noundef @dissect_qos_val)
  store i16 %57, ptr %5, align 2
  %58 = load ptr, ptr %6, align 8
  %59 = load ptr, ptr %4, align 8
  %60 = load i16, ptr %5, align 2
  %61 = sext i16 %60 to i32
  %62 = load i32, ptr @ett_pk_loss_rate, align 4
  %63 = call ptr @proto_tree_add_subtree(ptr noundef %58, ptr noundef %59, i32 noundef %61, i32 noundef 1, i32 noundef %62, ptr noundef null, ptr noundef @.str.637)
  store ptr %63, ptr %7, align 8
  %64 = load ptr, ptr %4, align 8
  %65 = load i16, ptr %5, align 2
  %66 = load ptr, ptr %7, align 8
  %67 = call signext i16 @dissect_mih_list(ptr noundef %64, i16 noundef signext %65, ptr noundef %66, ptr noundef @dissect_qos_val)
  store i16 %67, ptr %5, align 2
  %68 = load i16, ptr %5, align 2
  call void @llvm.lifetime.end.p0(i64 8, ptr %7) #5
  ret i16 %68
}