; Function Attrs: null_pointer_is_valid sspstrong uwtable
define internal fastcc signext i16 @dissect_qos_list(ptr noundef %0, i16 noundef signext %1, ptr noundef %2) unnamed_addr #0 {
  %4 = load i32, ptr @hf_num_cos, align 4
  %5 = sext i16 %1 to i32
  %6 = tail call ptr @proto_tree_add_item(ptr noundef %2, i32 noundef %4, ptr noundef %0, i32 noundef %5, i32 noundef 1, i32 noundef 0)
  %7 = add i16 %1, 1
  %8 = sext i16 %7 to i32
  %9 = load i32, ptr @ett_min_pk_tx_delay, align 4
  %10 = tail call ptr @proto_tree_add_subtree(ptr noundef %2, ptr noundef %0, i32 noundef %8, i32 noundef 1, i32 noundef %9, ptr noundef null, ptr noundef nonnull @.str.633)
  %11 = tail call zeroext i8 @tvb_get_uint8(ptr noundef %0, i32 noundef %8)
  %12 = add i16 %1, 2
  %.not.i = icmp eq i8 %11, 0
  br i1 %.not.i, label %dissect_mih_list.exit, label %.lr.ph.i

.lr.ph.i:                                         ; preds = %3, %.lr.ph.i
  %.012.i = phi i16 [ %20, %.lr.ph.i ], [ %12, %3 ]
  %.01011.i = phi i8 [ %21, %.lr.ph.i ], [ 0, %3 ]
  %13 = load i32, ptr @hf_cos_id, align 4
  %14 = sext i16 %.012.i to i32
  %15 = tail call ptr @proto_tree_add_item(ptr noundef %10, i32 noundef %13, ptr noundef %0, i32 noundef %14, i32 noundef 1, i32 noundef 0)
  %16 = add i16 %.012.i, 1
  %17 = load i32, ptr @hf_cos_value, align 4
  %18 = sext i16 %16 to i32
  %19 = tail call ptr @proto_tree_add_item(ptr noundef %10, i32 noundef %17, ptr noundef %0, i32 noundef %18, i32 noundef 2, i32 noundef 0)
  %20 = add i16 %.012.i, 3
  %21 = add nuw i8 %.01011.i, 1
  %exitcond.not.i = icmp eq i8 %21, %11
  br i1 %exitcond.not.i, label %dissect_mih_list.exit, label %.lr.ph.i, !llvm.loop !11

dissect_mih_list.exit:                            ; preds = %.lr.ph.i, %3
  %.0.lcssa.i = phi i16 [ %12, %3 ], [ %20, %.lr.ph.i ]
  %22 = sext i16 %.0.lcssa.i to i32
  %23 = load i32, ptr @ett_avg_pk_tx_delay, align 4
  %24 = tail call ptr @proto_tree_add_subtree(ptr noundef %2, ptr noundef %0, i32 noundef %22, i32 noundef 1, i32 noundef %23, ptr noundef null, ptr noundef nonnull @.str.634)
  %25 = tail call zeroext i8 @tvb_get_uint8(ptr noundef %0, i32 noundef %22)
  %26 = add i16 %.0.lcssa.i, 1
  %.not.i34 = icmp eq i8 %25, 0
  br i1 %.not.i34, label %dissect_mih_list.exit40, label %.lr.ph.i35

.lr.ph.i35:                                       ; preds = %dissect_mih_list.exit, %.lr.ph.i35
  %.012.i36 = phi i16 [ %34, %.lr.ph.i35 ], [ %26, %dissect_mih_list.exit ]
  %.01011.i37 = phi i8 [ %35, %.lr.ph.i35 ], [ 0, %dissect_mih_list.exit ]
  %27 = load i32, ptr @hf_cos_id, align 4
  %28 = sext i16 %.012.i36 to i32
  %29 = tail call ptr @proto_tree_add_item(ptr noundef %24, i32 noundef %27, ptr noundef %0, i32 noundef %28, i32 noundef 1, i32 noundef 0)
  %30 = add i16 %.012.i36, 1
  %31 = load i32, ptr @hf_cos_value, align 4
  %32 = sext i16 %30 to i32
  %33 = tail call ptr @proto_tree_add_item(ptr noundef %24, i32 noundef %31, ptr noundef %0, i32 noundef %32, i32 noundef 2, i32 noundef 0)
  %34 = add i16 %.012.i36, 3
  %35 = add nuw i8 %.01011.i37, 1
  %exitcond.not.i38 = icmp eq i8 %35, %25
  br i1 %exitcond.not.i38, label %dissect_mih_list.exit40, label %.lr.ph.i35, !llvm.loop !11

dissect_mih_list.exit40:                          ; preds = %.lr.ph.i35, %dissect_mih_list.exit
  %.0.lcssa.i39 = phi i16 [ %26, %dissect_mih_list.exit ], [ %34, %.lr.ph.i35 ]
  %36 = sext i16 %.0.lcssa.i39 to i32
  %37 = load i32, ptr @ett_max_pk_tx_delay, align 4
  %38 = tail call ptr @proto_tree_add_subtree(ptr noundef %2, ptr noundef %0, i32 noundef %36, i32 noundef 1, i32 noundef %37, ptr noundef null, ptr noundef nonnull @.str.635)
  %39 = tail call zeroext i8 @tvb_get_uint8(ptr noundef %0, i32 noundef %36)
  %40 = add i16 %.0.lcssa.i39, 1
  %.not.i41 = icmp eq i8 %39, 0
  br i1 %.not.i41, label %dissect_mih_list.exit47, label %.lr.ph.i42

.lr.ph.i42:                                       ; preds = %dissect_mih_list.exit40, %.lr.ph.i42
  %.012.i43 = phi i16 [ %48, %.lr.ph.i42 ], [ %40, %dissect_mih_list.exit40 ]
  %.01011.i44 = phi i8 [ %49, %.lr.ph.i42 ], [ 0, %dissect_mih_list.exit40 ]
  %41 = load i32, ptr @hf_cos_id, align 4
  %42 = sext i16 %.012.i43 to i32
  %43 = tail call ptr @proto_tree_add_item(ptr noundef %38, i32 noundef %41, ptr noundef %0, i32 noundef %42, i32 noundef 1, i32 noundef 0)
  %44 = add i16 %.012.i43, 1
  %45 = load i32, ptr @hf_cos_value, align 4
  %46 = sext i16 %44 to i32
  %47 = tail call ptr @proto_tree_add_item(ptr noundef %38, i32 noundef %45, ptr noundef %0, i32 noundef %46, i32 noundef 2, i32 noundef 0)
  %48 = add i16 %.012.i43, 3
  %49 = add nuw i8 %.01011.i44, 1
  %exitcond.not.i45 = icmp eq i8 %49, %39
  br i1 %exitcond.not.i45, label %dissect_mih_list.exit47, label %.lr.ph.i42, !llvm.loop !11

dissect_mih_list.exit47:                          ; preds = %.lr.ph.i42, %dissect_mih_list.exit40
  %.0.lcssa.i46 = phi i16 [ %40, %dissect_mih_list.exit40 ], [ %48, %.lr.ph.i42 ]
  %50 = sext i16 %.0.lcssa.i46 to i32
  %51 = load i32, ptr @ett_pk_delay_jitter, align 4
  %52 = tail call ptr @proto_tree_add_subtree(ptr noundef %2, ptr noundef %0, i32 noundef %50, i32 noundef 1, i32 noundef %51, ptr noundef null, ptr noundef nonnull @.str.636)
  %53 = tail call zeroext i8 @tvb_get_uint8(ptr noundef %0, i32 noundef %50)
  %54 = add i16 %.0.lcssa.i46, 1
  %.not.i48 = icmp eq i8 %53, 0
  br i1 %.not.i48, label %dissect_mih_list.exit54, label %.lr.ph.i49

.lr.ph.i49:                                       ; preds = %dissect_mih_list.exit47, %.lr.ph.i49
  %.012.i50 = phi i16 [ %62, %.lr.ph.i49 ], [ %54, %dissect_mih_list.exit47 ]
  %.01011.i51 = phi i8 [ %63, %.lr.ph.i49 ], [ 0, %dissect_mih_list.exit47 ]
  %55 = load i32, ptr @hf_cos_id, align 4
  %56 = sext i16 %.012.i50 to i32
  %57 = tail call ptr @proto_tree_add_item(ptr noundef %52, i32 noundef %55, ptr noundef %0, i32 noundef %56, i32 noundef 1, i32 noundef 0)
  %58 = add i16 %.012.i50, 1
  %59 = load i32, ptr @hf_cos_value, align 4
  %60 = sext i16 %58 to i32
  %61 = tail call ptr @proto_tree_add_item(ptr noundef %52, i32 noundef %59, ptr noundef %0, i32 noundef %60, i32 noundef 2, i32 noundef 0)
  %62 = add i16 %.012.i50, 3
  %63 = add nuw i8 %.01011.i51, 1
  %exitcond.not.i52 = icmp eq i8 %63, %53
  br i1 %exitcond.not.i52, label %dissect_mih_list.exit54, label %.lr.ph.i49, !llvm.loop !11

dissect_mih_list.exit54:                          ; preds = %.lr.ph.i49, %dissect_mih_list.exit47
  %.0.lcssa.i53 = phi i16 [ %54, %dissect_mih_list.exit47 ], [ %62, %.lr.ph.i49 ]
  %64 = sext i16 %.0.lcssa.i53 to i32
  %65 = load i32, ptr @ett_pk_loss_rate, align 4
  %66 = tail call ptr @proto_tree_add_subtree(ptr noundef %2, ptr noundef %0, i32 noundef %64, i32 noundef 1, i32 noundef %65, ptr noundef null, ptr noundef nonnull @.str.637)
  %67 = tail call zeroext i8 @tvb_get_uint8(ptr noundef %0, i32 noundef %64)
  %68 = add i16 %.0.lcssa.i53, 1
  %.not.i55 = icmp eq i8 %67, 0
  br i1 %.not.i55, label %dissect_mih_list.exit61, label %.lr.ph.i56

.lr.ph.i56:                                       ; preds = %dissect_mih_list.exit54, %.lr.ph.i56
  %.012.i57 = phi i16 [ %76, %.lr.ph.i56 ], [ %68, %dissect_mih_list.exit54 ]
  %.01011.i58 = phi i8 [ %77, %.lr.ph.i56 ], [ 0, %dissect_mih_list.exit54 ]
  %69 = load i32, ptr @hf_cos_id, align 4
  %70 = sext i16 %.012.i57 to i32
  %71 = tail call ptr @proto_tree_add_item(ptr noundef %66, i32 noundef %69, ptr noundef %0, i32 noundef %70, i32 noundef 1, i32 noundef 0)
  %72 = add i16 %.012.i57, 1
  %73 = load i32, ptr @hf_cos_value, align 4
  %74 = sext i16 %72 to i32
  %75 = tail call ptr @proto_tree_add_item(ptr noundef %66, i32 noundef %73, ptr noundef %0, i32 noundef %74, i32 noundef 2, i32 noundef 0)
  %76 = add i16 %.012.i57, 3
  %77 = add nuw i8 %.01011.i58, 1
  %exitcond.not.i59 = icmp eq i8 %77, %67
  br i1 %exitcond.not.i59, label %dissect_mih_list.exit61, label %.lr.ph.i56, !llvm.loop !11

dissect_mih_list.exit61:                          ; preds = %.lr.ph.i56, %dissect_mih_list.exit54
  %.0.lcssa.i60 = phi i16 [ %68, %dissect_mih_list.exit54 ], [ %76, %.lr.ph.i56 ]
  ret i16 %.0.lcssa.i60
}